target datalayout = "e-m:e-p270:32:32-p271:32:32-p272:64:64-i64:64-i128:128-f80:128-n8:16:32:64-S128"
target triple = "x86_64-pc-linux-gnu"

%struct.ML_KEM_VINFO = type { ptr, i64, i64, i64, i64, i64, i64, i64, i32, i32, i32, i32, i32, i32 }
%struct.ossl_ml_kem_key_st = type { ptr, ptr, ptr, ptr, ptr, ptr, ptr, ptr, ptr, ptr, ptr, ptr, ptr, i32, i32, [64 x i8], ptr }
%struct.ossl_ml_kem_scalar_st = type { [256 x i16] }

; Function Attrs: inlinehint nounwind uwtable
define internal i64 @__uint64_identity(i64 noundef %0) #6 {
  %2 = alloca i64, align 8
  store i64 %0, ptr %2, align 8, !tbaa !42
  %3 = load i64, ptr %2, align 8, !tbaa !42
  ret i64 %3
}

; Function Attrs: inlinehint nounwind uwtable
define internal ptr @OPENSSL_store_u64_le(ptr noundef %0, i64 noundef %1) #6 {
  %3 = alloca ptr, align 8
  %4 = alloca i64, align 8
  %5 = alloca i64, align 8
  store ptr %0, ptr %3, align 8, !tbaa !25
  store i64 %1, ptr %4, align 8, !tbaa !42
  call void @llvm.lifetime.start.p0(i64 8, ptr %5) #8
  %6 = load i64, ptr %4, align 8, !tbaa !42
  %7 = call i64 @__uint64_identity(i64 noundef %6)
  store i64 %7, ptr %5, align 8, !tbaa !42
  %8 = load ptr, ptr %3, align 8, !tbaa !25
  call void @llvm.memcpy.p0.p0.i64(ptr align 1 %8, ptr align 8 %5, i64 8, i1 false)
  %9 = load ptr, ptr %3, align 8, !tbaa !25
  %10 = getelementptr inbounds i8, ptr %9, i64 8
  call void @llvm.lifetime.end.p0(i64 8, ptr %5) #8
  ret ptr %10
}

; Function Attrs: nounwind uwtable
define internal void @scalar_encode(ptr noundef %0, ptr noundef %1, i32 noundef %2) #0 {
  %4 = alloca ptr, align 8
  %5 = alloca ptr, align 8
  %6 = alloca i32, align 4
  %7 = alloca ptr, align 8
  %8 = alloca ptr, align 8
  %9 = alloca i64, align 8
  %10 = alloca i64, align 8
  %11 = alloca i32, align 4
  store ptr %0, ptr %4, align 8, !tbaa !25
  store ptr %1, ptr %5, align 8, !tbaa !40
  store i32 %2, ptr %6, align 4, !tbaa !23
  call void @llvm.lifetime.start.p0(i64 8, ptr %7) #8
  %12 = load ptr, ptr %5, align 8, !tbaa !40
  %13 = getelementptr inbounds nuw %struct.ossl_ml_kem_scalar_st, ptr %12, i32 0, i32 0
  %14 = getelementptr inbounds [256 x i16], ptr %13, i64 0, i64 0
  store ptr %14, ptr %7, align 8, !tbaa !53
  call void @llvm.lifetime.start.p0(i64 8, ptr %8) #8
  %15 = load ptr, ptr %7, align 8, !tbaa !53
  %16 = getelementptr inbounds i16, ptr %15, i64 256
  store ptr %16, ptr %8, align 8, !tbaa !53
  call void @llvm.lifetime.start.p0(i64 8, ptr %9) #8
  store i64 0, ptr %9, align 8, !tbaa !42
  call void @llvm.lifetime.start.p0(i64 8, ptr %10) #8
  call void @llvm.lifetime.start.p0(i64 4, ptr %11) #8
  store i32 0, ptr %11, align 4, !tbaa !23
  br label %17

17:                                               ; preds = %70, %3
  %18 = load ptr, ptr %7, align 8, !tbaa !53
  %19 = getelementptr inbounds nuw i16, ptr %18, i32 1
  store ptr %19, ptr %7, align 8, !tbaa !53
  %20 = load i16, ptr %18, align 2, !tbaa !55
  %21 = zext i16 %20 to i64
  store i64 %21, ptr %10, align 8, !tbaa !42
  %22 = load i32, ptr %11, align 4, !tbaa !23
  %23 = load i32, ptr %6, align 4, !tbaa !23
  %24 = add nsw i32 %22, %23
  %25 = icmp slt i32 %24, 64
  br i1 %25, label %26, label %36

26:                                               ; preds = %17
  %27 = load i64, ptr %10, align 8, !tbaa !42
  %28 = load i32, ptr %11, align 4, !tbaa !23
  %29 = zext i32 %28 to i64
  %30 = shl i64 %27, %29
  %31 = load i64, ptr %9, align 8, !tbaa !42
  %32 = or i64 %31, %30
  store i64 %32, ptr %9, align 8, !tbaa !42
  %33 = load i32, ptr %6, align 4, !tbaa !23
  %34 = load i32, ptr %11, align 4, !tbaa !23
  %35 = add nsw i32 %34, %33
  store i32 %35, ptr %11, align 4, !tbaa !23
  br label %69

36:                                               ; preds = %17
  %37 = load i32, ptr %11, align 4, !tbaa !23
  %38 = load i32, ptr %6, align 4, !tbaa !23
  %39 = add nsw i32 %37, %38
  %40 = icmp sgt i32 %39, 64
  br i1 %40, label %41, label %59

41:                                               ; preds = %36
  %42 = load ptr, ptr %4, align 8, !tbaa !25
  %43 = load i64, ptr %9, align 8, !tbaa !42
  %44 = load i64, ptr %10, align 8, !tbaa !42
  %45 = load i32, ptr %11, align 4, !tbaa !23
  %46 = zext i32 %45 to i64
  %47 = shl i64 %44, %46
  %48 = or i64 %43, %47
  %49 = call ptr @OPENSSL_store_u64_le(ptr noundef %42, i64 noundef %48)
  store ptr %49, ptr %4, align 8, !tbaa !25
  %50 = load i64, ptr %10, align 8, !tbaa !42
  %51 = load i32, ptr %11, align 4, !tbaa !23
  %52 = sub nsw i32 64, %51
  %53 = zext i32 %52 to i64
  %54 = lshr i64 %50, %53
  store i64 %54, ptr %9, align 8, !tbaa !42
  %55 = load i32, ptr %11, align 4, !tbaa !23
  %56 = load i32, ptr %6, align 4, !tbaa !23
  %57 = add nsw i32 %55, %56
  %58 = sub nsw i32 %57, 64
  store i32 %58, ptr %11, align 4, !tbaa !23
  br label %68

59:                                               ; preds = %36
  %60 = load ptr, ptr %4, align 8, !tbaa !25
  %61 = load i64, ptr %9, align 8, !tbaa !42
  %62 = load i64, ptr %10, align 8, !tbaa !42
  %63 = load i32, ptr %11, align 4, !tbaa !23
  %64 = zext i32 %63 to i64
  %65 = shl i64 %62, %64
  %66 = or i64 %61, %65
  %67 = call ptr @OPENSSL_store_u64_le(ptr noundef %60, i64 noundef %66)
  store ptr %67, ptr %4, align 8, !tbaa !25
  store i64 0, ptr %9, align 8, !tbaa !42
  store i32 0, ptr %11, align 4, !tbaa !23
  br label %68

68:                                               ; preds = %59, %41
  br label %69

69:                                               ; preds = %68, %26
  br label %70

70:                                               ; preds = %69
  %71 = load ptr, ptr %7, align 8, !tbaa !53
  %72 = load ptr, ptr %8, align 8, !tbaa !53
  %73 = icmp ult ptr %71, %72
  br i1 %73, label %17, label %74, !llvm.loop !57

74:                                               ; preds = %70
  call void @llvm.lifetime.end.p0(i64 4, ptr %11) #8
  call void @llvm.lifetime.end.p0(i64 8, ptr %10) #8
  call void @llvm.lifetime.end.p0(i64 8, ptr %9) #8
  call void @llvm.lifetime.end.p0(i64 8, ptr %8) #8
  call void @llvm.lifetime.end.p0(i64 8, ptr %7) #8
  ret void
}

; Function Attrs: nounwind uwtable
define internal void @encode_pubkey(ptr noundef %0, ptr noundef %1) #0 {
  %3 = alloca ptr, align 8
  %4 = alloca ptr, align 8
  %5 = alloca ptr, align 8
  %6 = alloca ptr, align 8
  store ptr %0, ptr %3, align 8, !tbaa !25
  store ptr %1, ptr %4, align 8, !tbaa !3
  call void @llvm.lifetime.start.p0(i64 8, ptr %5) #8
  %7 = load ptr, ptr %4, align 8, !tbaa !3
  %8 = getelementptr inbounds nuw %struct.ossl_ml_kem_key_st, ptr %7, i32 0, i32 6
  %9 = load ptr, ptr %8, align 8, !tbaa !36
  store ptr %9, ptr %5, align 8, !tbaa !25
  call void @llvm.lifetime.start.p0(i64 8, ptr %6) #8
  %10 = load ptr, ptr %4, align 8, !tbaa !3
  %11 = getelementptr inbounds nuw %struct.ossl_ml_kem_key_st, ptr %10, i32 0, i32 0
  %12 = load ptr, ptr %11, align 8, !tbaa !16
  store ptr %12, ptr %6, align 8, !tbaa !26
  %13 = load ptr, ptr %3, align 8, !tbaa !25
  %14 = load ptr, ptr %4, align 8, !tbaa !3
  %15 = getelementptr inbounds nuw %struct.ossl_ml_kem_key_st, ptr %14, i32 0, i32 8
  %16 = load ptr, ptr %15, align 8, !tbaa !8
  %17 = load ptr, ptr %6, align 8, !tbaa !26
  %18 = getelementptr inbounds nuw %struct.ML_KEM_VINFO, ptr %17, i32 0, i32 10
  %19 = load i32, ptr %18, align 8, !tbaa !41
  call void @vector_encode(ptr noundef %13, ptr noundef %16, i32 noundef 12, i32 noundef %19)
  %20 = load ptr, ptr %3, align 8, !tbaa !25
  %21 = load ptr, ptr %6, align 8, !tbaa !26
  %22 = getelementptr inbounds nuw %struct.ML_KEM_VINFO, ptr %21, i32 0, i32 6
  %23 = load i64, ptr %22, align 8, !tbaa !17
  %24 = getelementptr inbounds nuw i8, ptr %20, i64 %23
  %25 = load ptr, ptr %5, align 8, !tbaa !25
  call void @llvm.memcpy.p0.p0.i64(ptr align 1 %24, ptr align 1 %25, i64 32, i1 false)
  call void @llvm.lifetime.end.p0(i64 8, ptr %6) #8
  call void @llvm.lifetime.end.p0(i64 8, ptr %5) #8
  ret void
}

; Function Attrs: nounwind uwtable
define internal void @vector_encode(ptr noundef %0, ptr noundef %1, i32 noundef %2, i32 noundef %3) #0 {
  %5 = alloca ptr, align 8
  %6 = alloca ptr, align 8
  %7 = alloca i32, align 4
  %8 = alloca i32, align 4
  %9 = alloca i32, align 4
  store ptr %0, ptr %5, align 8, !tbaa !25
  store ptr %1, ptr %6, align 8, !tbaa !40
  store i32 %2, ptr %7, align 4, !tbaa !23
  store i32 %3, ptr %8, align 4, !tbaa !23
  call void @llvm.lifetime.start.p0(i64 4, ptr %9) #8
  %10 = load i32, ptr %7, align 4, !tbaa !23
  %11 = mul nsw i32 %10, 256
  %12 = sdiv i32 %11, 8
  store i32 %12, ptr %9, align 4, !tbaa !23
  br label %13

13:                                               ; preds = %22, %4
  %14 = load i32, ptr %8, align 4, !tbaa !23
  %15 = add nsw i32 %14, -1
  store i32 %15, ptr %8, align 4, !tbaa !23
  %16 = icmp sgt i32 %14, 0
  br i1 %16, label %17, label %27

17:                                               ; preds = %13
  %18 = load ptr, ptr %5, align 8, !tbaa !25
  %19 = load ptr, ptr %6, align 8, !tbaa !40
  %20 = getelementptr inbounds nuw %struct.ossl_ml_kem_scalar_st, ptr %19, i32 1
  store ptr %20, ptr %6, align 8, !tbaa !40
  %21 = load i32, ptr %7, align 4, !tbaa !23
  call void @scalar_encode(ptr noundef %18, ptr noundef %19, i32 noundef %21)
  br label %22

22:                                               ; preds = %17
  %23 = load i32, ptr %9, align 4, !tbaa !23
  %24 = load ptr, ptr %5, align 8, !tbaa !25
  %25 = sext i32 %23 to i64
  %26 = getelementptr inbounds i8, ptr %24, i64 %25
  store ptr %26, ptr %5, align 8, !tbaa !25
  br label %13, !llvm.loop !52

27:                                               ; preds = %13
  call void @llvm.lifetime.end.p0(i64 4, ptr %9) #8
  ret void
}

; Function Attrs: nounwind uwtable
define internal void @encode_prvkey(ptr noundef %0, ptr noundef %1) #0 {
  %3 = alloca ptr, align 8
  %4 = alloca ptr, align 8
  %5 = alloca ptr, align 8
  store ptr %0, ptr %3, align 8, !tbaa !25
  store ptr %1, ptr %4, align 8, !tbaa !3
  call void @llvm.lifetime.start.p0(i64 8, ptr %5) #8
  %6 = load ptr, ptr %4, align 8, !tbaa !3
  %7 = getelementptr inbounds nuw %struct.ossl_ml_kem_key_st, ptr %6, i32 0, i32 0
  %8 = load ptr, ptr %7, align 8, !tbaa !16
  store ptr %8, ptr %5, align 8, !tbaa !26
  %9 = load ptr, ptr %3, align 8, !tbaa !25
  %10 = load ptr, ptr %4, align 8, !tbaa !3
  %11 = getelementptr inbounds nuw %struct.ossl_ml_kem_key_st, ptr %10, i32 0, i32 10
  %12 = load ptr, ptr %11, align 8, !tbaa !15
  %13 = load ptr, ptr %5, align 8, !tbaa !26
  %14 = getelementptr inbounds nuw %struct.ML_KEM_VINFO, ptr %13, i32 0, i32 10
  %15 = load i32, ptr %14, align 8, !tbaa !41
  call void @vector_encode(ptr noundef %9, ptr noundef %12, i32 noundef 12, i32 noundef %15)
  %16 = load ptr, ptr %5, align 8, !tbaa !26
  %17 = getelementptr inbounds nuw %struct.ML_KEM_VINFO, ptr %16, i32 0, i32 6
  %18 = load i64, ptr %17, align 8, !tbaa !17
  %19 = load ptr, ptr %3, align 8, !tbaa !25
  %20 = getelementptr inbounds nuw i8, ptr %19, i64 %18
  store ptr %20, ptr %3, align 8, !tbaa !25
  %21 = load ptr, ptr %3, align 8, !tbaa !25
  %22 = load ptr, ptr %4, align 8, !tbaa !3
  call void @encode_pubkey(ptr noundef %21, ptr noundef %22)
  %23 = load ptr, ptr %5, align 8, !tbaa !26
  %24 = getelementptr inbounds nuw %struct.ML_KEM_VINFO, ptr %23, i32 0, i32 3
  %25 = load i64, ptr %24, align 8, !tbaa !43
  %26 = load ptr, ptr %3, align 8, !tbaa !25
  %27 = getelementptr inbounds nuw i8, ptr %26, i64 %25
  store ptr %27, ptr %3, align 8, !tbaa !25
  %28 = load ptr, ptr %3, align 8, !tbaa !25
  %29 = load ptr, ptr %4, align 8, !tbaa !3
  %30 = getelementptr inbounds nuw %struct.ossl_ml_kem_key_st, ptr %29, i32 0, i32 7
  %31 = load ptr, ptr %30, align 8, !tbaa !35
  call void @llvm.memcpy.p0.p0.i64(ptr align 1 %28, ptr align 1 %31, i64 32, i1 false)
  %32 = load ptr, ptr %3, align 8, !tbaa !25
  %33 = getelementptr inbounds i8, ptr %32, i64 32
  store ptr %33, ptr %3, align 8, !tbaa !25
  %34 = load ptr, ptr %3, align 8, !tbaa !25
  %35 = load ptr, ptr %4, align 8, !tbaa !3
  %36 = getelementptr inbounds nuw %struct.ossl_ml_kem_key_st, ptr %35, i32 0, i32 11
  %37 = load ptr, ptr %36, align 8, !tbaa !21
  call void @llvm.memcpy.p0.p0.i64(ptr align 1 %34, ptr align 1 %37, i64 32, i1 false)
  call void @llvm.lifetime.end.p0(i64 8, ptr %5) #8
  ret void
}

; Function Attrs: nounwind uwtable
define i32 @ossl_ml_kem_encode_private_key(ptr noundef %0, i64 noundef %1, ptr noundef %2) #0 {
  %4 = alloca i32, align 4
  %5 = alloca ptr, align 8
  %6 = alloca i64, align 8
  %7 = alloca ptr, align 8
  store ptr %0, ptr %5, align 8, !tbaa !25
  store i64 %1, ptr %6, align 8, !tbaa !42
  store ptr %2, ptr %7, align 8, !tbaa !3
  %8 = load ptr, ptr %7, align 8, !tbaa !3
  %9 = getelementptr inbounds nuw %struct.ossl_ml_kem_key_st, ptr %8, i32 0, i32 10
  %10 = load ptr, ptr %9, align 8, !tbaa !15
  %11 = icmp ne ptr %10, null
  br i1 %11, label %12, label %20

12:                                               ; preds = %3
  %13 = load i64, ptr %6, align 8, !tbaa !42
  %14 = load ptr, ptr %7, align 8, !tbaa !3
  %15 = getelementptr inbounds nuw %struct.ossl_ml_kem_key_st, ptr %14, i32 0, i32 0
  %16 = load ptr, ptr %15, align 8, !tbaa !16
  %17 = getelementptr inbounds nuw %struct.ML_KEM_VINFO, ptr %16, i32 0, i32 1
  %18 = load i64, ptr %17, align 8, !tbaa !37
  %19 = icmp ne i64 %13, %18
  br i1 %19, label %20, label %21

20:                                               ; preds = %12, %3
  store i32 0, ptr %4, align 4
  br label %24

21:                                               ; preds = %12
  %22 = load ptr, ptr %5, align 8, !tbaa !25
  %23 = load ptr, ptr %7, align 8, !tbaa !3
  call void @encode_prvkey(ptr noundef %22, ptr noundef %23)
  store i32 1, ptr %4, align 4
  br label %24

24:                                               ; preds = %21, %20
  %25 = load i32, ptr %4, align 4
  ret i32 %25
}