; Function Attrs: nofree norecurse nosync nounwind memory(readwrite, inaccessiblemem: none) uwtable
define range(i32 0, 2) i32 @ossl_ml_kem_encode_private_key(ptr noundef writeonly captures(none) %0, i64 noundef %1, ptr noundef readonly captures(none) %2) local_unnamed_addr #4 {
  %4 = getelementptr inbounds nuw i8, ptr %2, i64 80
  %5 = load ptr, ptr %4, align 8, !tbaa !13
  %.not = icmp eq ptr %5, null
  br i1 %.not, label %91, label %6

6:                                                ; preds = %3
  %7 = load ptr, ptr %2, align 8, !tbaa !14
  %8 = getelementptr inbounds nuw i8, ptr %7, i64 8
  %9 = load i64, ptr %8, align 8, !tbaa !27
  %.not5 = icmp eq i64 %1, %9
  br i1 %.not5, label %10, label %91

10:                                               ; preds = %6
  %11 = getelementptr inbounds nuw i8, ptr %7, i64 72
  %12 = load i32, ptr %11, align 8, !tbaa !29
  %13 = icmp sgt i32 %12, 0
  br i1 %13, label %.lr.ph.i.i, label %vector_encode.exit.thread.i

vector_encode.exit.thread.i:                      ; preds = %10
  %14 = getelementptr inbounds nuw i8, ptr %7, i64 48
  %15 = load i64, ptr %14, align 8, !tbaa !15
  %16 = getelementptr inbounds nuw i8, ptr %0, i64 %15
  %17 = getelementptr inbounds nuw i8, ptr %2, i64 48
  %18 = load ptr, ptr %17, align 8, !tbaa !31
  br label %encode_prvkey.exit

.lr.ph.i.i:                                       ; preds = %10, %scalar_encode.exit.i.i
  %.010.i.i = phi ptr [ %42, %scalar_encode.exit.i.i ], [ %0, %10 ]
  %.069.i.i = phi i32 [ %40, %scalar_encode.exit.i.i ], [ %12, %10 ]
  %.078.i.i = phi ptr [ %41, %scalar_encode.exit.i.i ], [ %5, %10 ]
  br label %19

19:                                               ; preds = %38, %.lr.ph.i.i
  %.029.idx.i.i.i = phi i64 [ 0, %.lr.ph.i.i ], [ %.029.add.i.i.i, %38 ]
  %.027.i.i.i = phi i64 [ 0, %.lr.ph.i.i ], [ %.128.i.i.i, %38 ]
  %.025.i.i.i = phi ptr [ %.010.i.i, %.lr.ph.i.i ], [ %.126.i.i.i, %38 ]
  %.0.i.i.i = phi i32 [ 0, %.lr.ph.i.i ], [ %.1.i.i.i, %38 ]
  %.029.ptr.i.i.i = getelementptr inbounds nuw i8, ptr %.078.i.i, i64 %.029.idx.i.i.i
  %.029.add.i.i.i = add nuw nsw i64 %.029.idx.i.i.i, 2
  %20 = load i16, ptr %.029.ptr.i.i.i, align 2, !tbaa !36
  %21 = zext i16 %20 to i64
  %22 = add nsw i32 %.0.i.i.i, 12
  %23 = icmp slt i32 %.0.i.i.i, 52
  br i1 %23, label %24, label %28

24:                                               ; preds = %19
  %25 = zext nneg i32 %.0.i.i.i to i64
  %26 = shl i64 %21, %25
  %27 = or i64 %26, %.027.i.i.i
  br label %38

28:                                               ; preds = %19
  %.not.i.i.i = icmp eq i32 %22, 64
  %29 = zext nneg i32 %.0.i.i.i to i64
  %30 = shl i64 %21, %29
  %31 = or i64 %30, %.027.i.i.i
  store i64 %31, ptr %.025.i.i.i, align 1
  %32 = getelementptr inbounds nuw i8, ptr %.025.i.i.i, i64 8
  br i1 %.not.i.i.i, label %38, label %33

33:                                               ; preds = %28
  %34 = sub nsw i32 64, %.0.i.i.i
  %35 = zext nneg i32 %34 to i64
  %36 = lshr i64 %21, %35
  %37 = add nsw i32 %.0.i.i.i, -52
  br label %38

38:                                               ; preds = %33, %28, %24
  %.128.i.i.i = phi i64 [ %27, %24 ], [ %36, %33 ], [ 0, %28 ]
  %.126.i.i.i = phi ptr [ %.025.i.i.i, %24 ], [ %32, %33 ], [ %32, %28 ]
  %.1.i.i.i = phi i32 [ %22, %24 ], [ %37, %33 ], [ 0, %28 ]
  %39 = icmp samesign ult i64 %.029.idx.i.i.i, 510
  br i1 %39, label %19, label %scalar_encode.exit.i.i, !llvm.loop !38

scalar_encode.exit.i.i:                           ; preds = %38
  %40 = add nsw i32 %.069.i.i, -1
  %41 = getelementptr inbounds nuw i8, ptr %.078.i.i, i64 512
  %42 = getelementptr inbounds nuw i8, ptr %.010.i.i, i64 384
  %43 = icmp sgt i32 %.069.i.i, 1
  br i1 %43, label %.lr.ph.i.i, label %vector_encode.exit.i, !llvm.loop !40

vector_encode.exit.i:                             ; preds = %scalar_encode.exit.i.i
  %.pre.i = load ptr, ptr %2, align 8, !tbaa !14
  %.phi.trans.insert.i = getelementptr inbounds nuw i8, ptr %.pre.i, i64 72
  %.pre15.i = load i32, ptr %.phi.trans.insert.i, align 8, !tbaa !29
  %44 = getelementptr inbounds nuw i8, ptr %7, i64 48
  %45 = load i64, ptr %44, align 8, !tbaa !15
  %46 = getelementptr inbounds nuw i8, ptr %0, i64 %45
  %47 = getelementptr inbounds nuw i8, ptr %2, i64 48
  %48 = load ptr, ptr %47, align 8, !tbaa !31
  %49 = icmp sgt i32 %.pre15.i, 0
  br i1 %49, label %.lr.ph.i.preheader.i.i, label %encode_prvkey.exit

.lr.ph.i.preheader.i.i:                           ; preds = %vector_encode.exit.i
  %50 = getelementptr inbounds nuw i8, ptr %2, i64 64
  %51 = load ptr, ptr %50, align 8, !tbaa !3
  br label %.lr.ph.i.i.i

.lr.ph.i.i.i:                                     ; preds = %scalar_encode.exit.i.i.i, %.lr.ph.i.preheader.i.i
  %.010.i.i.i = phi ptr [ %75, %scalar_encode.exit.i.i.i ], [ %46, %.lr.ph.i.preheader.i.i ]
  %.069.i.i.i = phi i32 [ %73, %scalar_encode.exit.i.i.i ], [ %.pre15.i, %.lr.ph.i.preheader.i.i ]
  %.078.i.i.i = phi ptr [ %74, %scalar_encode.exit.i.i.i ], [ %51, %.lr.ph.i.preheader.i.i ]
  br label %52

52:                                               ; preds = %71, %.lr.ph.i.i.i
  %.029.idx.i.i.i.i = phi i64 [ 0, %.lr.ph.i.i.i ], [ %.029.add.i.i.i.i, %71 ]
  %.027.i.i.i.i = phi i64 [ 0, %.lr.ph.i.i.i ], [ %.128.i.i.i.i, %71 ]
  %.025.i.i.i.i = phi ptr [ %.010.i.i.i, %.lr.ph.i.i.i ], [ %.126.i.i.i.i, %71 ]
  %.0.i.i.i.i = phi i32 [ 0, %.lr.ph.i.i.i ], [ %.1.i.i.i.i, %71 ]
  %.029.ptr.i.i.i.i = getelementptr inbounds nuw i8, ptr %.078.i.i.i, i64 %.029.idx.i.i.i.i
  %.029.add.i.i.i.i = add nuw nsw i64 %.029.idx.i.i.i.i, 2
  %53 = load i16, ptr %.029.ptr.i.i.i.i, align 2, !tbaa !36
  %54 = zext i16 %53 to i64
  %55 = add nsw i32 %.0.i.i.i.i, 12
  %56 = icmp slt i32 %.0.i.i.i.i, 52
  br i1 %56, label %57, label %61

57:                                               ; preds = %52
  %58 = zext nneg i32 %.0.i.i.i.i to i64
  %59 = shl i64 %54, %58
  %60 = or i64 %59, %.027.i.i.i.i
  br label %71

61:                                               ; preds = %52
  %.not.i.i.i.i = icmp eq i32 %55, 64
  %62 = zext nneg i32 %.0.i.i.i.i to i64
  %63 = shl i64 %54, %62
  %64 = or i64 %63, %.027.i.i.i.i
  store i64 %64, ptr %.025.i.i.i.i, align 1
  %65 = getelementptr inbounds nuw i8, ptr %.025.i.i.i.i, i64 8
  br i1 %.not.i.i.i.i, label %71, label %66

66:                                               ; preds = %61
  %67 = sub nsw i32 64, %.0.i.i.i.i
  %68 = zext nneg i32 %67 to i64
  %69 = lshr i64 %54, %68
  %70 = add nsw i32 %.0.i.i.i.i, -52
  br label %71

71:                                               ; preds = %66, %61, %57
  %.128.i.i.i.i = phi i64 [ %60, %57 ], [ %69, %66 ], [ 0, %61 ]
  %.126.i.i.i.i = phi ptr [ %.025.i.i.i.i, %57 ], [ %65, %66 ], [ %65, %61 ]
  %.1.i.i.i.i = phi i32 [ %55, %57 ], [ %70, %66 ], [ 0, %61 ]
  %72 = icmp samesign ult i64 %.029.idx.i.i.i.i, 510
  br i1 %72, label %52, label %scalar_encode.exit.i.i.i, !llvm.loop !38

scalar_encode.exit.i.i.i:                         ; preds = %71
  %73 = add nsw i32 %.069.i.i.i, -1
  %74 = getelementptr inbounds nuw i8, ptr %.078.i.i.i, i64 512
  %75 = getelementptr inbounds nuw i8, ptr %.010.i.i.i, i64 384
  %76 = icmp sgt i32 %.069.i.i.i, 1
  br i1 %76, label %.lr.ph.i.i.i, label %encode_prvkey.exit, !llvm.loop !40

encode_prvkey.exit:                               ; preds = %scalar_encode.exit.i.i.i, %vector_encode.exit.thread.i, %vector_encode.exit.i
  %77 = phi ptr [ %18, %vector_encode.exit.thread.i ], [ %48, %vector_encode.exit.i ], [ %48, %scalar_encode.exit.i.i.i ]
  %78 = phi ptr [ %16, %vector_encode.exit.thread.i ], [ %46, %vector_encode.exit.i ], [ %46, %scalar_encode.exit.i.i.i ]
  %79 = phi ptr [ %7, %vector_encode.exit.thread.i ], [ %.pre.i, %vector_encode.exit.i ], [ %.pre.i, %scalar_encode.exit.i.i.i ]
  %80 = getelementptr inbounds nuw i8, ptr %79, i64 48
  %81 = load i64, ptr %80, align 8, !tbaa !15
  %82 = getelementptr inbounds nuw i8, ptr %78, i64 %81
  tail call void @llvm.memcpy.p0.p0.i64(ptr noundef nonnull align 1 dereferenceable(32) %82, ptr noundef nonnull align 1 dereferenceable(32) %77, i64 32, i1 false)
  %83 = getelementptr inbounds nuw i8, ptr %7, i64 24
  %84 = load i64, ptr %83, align 8, !tbaa !35
  %85 = getelementptr inbounds nuw i8, ptr %78, i64 %84
  %86 = getelementptr inbounds nuw i8, ptr %2, i64 56
  %87 = load ptr, ptr %86, align 8, !tbaa !32
  tail call void @llvm.memcpy.p0.p0.i64(ptr noundef nonnull align 1 dereferenceable(32) %85, ptr noundef nonnull align 1 dereferenceable(32) %87, i64 32, i1 false)
  %88 = getelementptr inbounds nuw i8, ptr %85, i64 32
  %89 = getelementptr inbounds nuw i8, ptr %2, i64 88
  %90 = load ptr, ptr %89, align 8, !tbaa !34
  tail call void @llvm.memcpy.p0.p0.i64(ptr noundef nonnull align 1 dereferenceable(32) %88, ptr noundef nonnull align 1 dereferenceable(32) %90, i64 32, i1 false)
  br label %91

91:                                               ; preds = %3, %6, %encode_prvkey.exit
  %.0 = phi i32 [ 1, %encode_prvkey.exit ], [ 0, %6 ], [ 0, %3 ]
  ret i32 %.0
}